target datalayout = "e-m:e-p270:32:32-p271:32:32-p272:64:64-i64:64-i128:128-f80:128-n8:16:32:64-S128"
target triple = "x86_64-pc-linux-gnu"

%struct.mbedtls_psa_aead_operation_t = type { i32, i16, i8, i8, %union.anon }
%union.anon = type { %struct.mbedtls_gcm_context }
%struct.mbedtls_gcm_context = type { %struct.mbedtls_cipher_context_t, [16 x [2 x i64]], i64, i64, [16 x i8], [16 x i8], [16 x i8], i8, i8 }
%struct.mbedtls_cipher_context_t = type { ptr, i32, i32, ptr, ptr, [16 x i8], i64, [16 x i8], i64, ptr, ptr }

; Function Attrs: nounwind uwtable
define hidden i32 @mbedtls_psa_aead_update(ptr noundef %0, ptr noundef %1, i64 noundef %2, ptr noundef %3, i64 noundef %4, ptr noundef %5) #0 {
  %7 = alloca i32, align 4
  %8 = alloca ptr, align 8
  %9 = alloca ptr, align 8
  %10 = alloca i64, align 8
  %11 = alloca ptr, align 8
  %12 = alloca i64, align 8
  %13 = alloca ptr, align 8
  %14 = alloca i64, align 8
  %15 = alloca i32, align 4
  %16 = alloca i32, align 4
  store ptr %0, ptr %8, align 8, !tbaa !20
  store ptr %1, ptr %9, align 8, !tbaa !8
  store i64 %2, ptr %10, align 8, !tbaa !10
  store ptr %3, ptr %11, align 8, !tbaa !8
  store i64 %4, ptr %12, align 8, !tbaa !10
  store ptr %5, ptr %13, align 8, !tbaa !14
  call void @llvm.lifetime.start.p0(i64 8, ptr %14) #5
  call void @llvm.lifetime.start.p0(i64 4, ptr %15) #5
  store i32 -151, ptr %15, align 4, !tbaa !12
  %17 = load i64, ptr %10, align 8, !tbaa !10
  store i64 %17, ptr %14, align 8, !tbaa !10
  %18 = load ptr, ptr %8, align 8, !tbaa !20
  %19 = getelementptr inbounds nuw %struct.mbedtls_psa_aead_operation_t, ptr %18, i32 0, i32 0
  %20 = load i32, ptr %19, align 8, !tbaa !19
  %21 = icmp eq i32 %20, 89129472
  br i1 %21, label %22, label %31

22:                                               ; preds = %6
  %23 = load ptr, ptr %8, align 8, !tbaa !20
  %24 = getelementptr inbounds nuw %struct.mbedtls_psa_aead_operation_t, ptr %23, i32 0, i32 4
  %25 = load ptr, ptr %9, align 8, !tbaa !8
  %26 = load i64, ptr %10, align 8, !tbaa !10
  %27 = load ptr, ptr %11, align 8, !tbaa !8
  %28 = load i64, ptr %12, align 8, !tbaa !10
  %29 = call i32 @mbedtls_gcm_update(ptr noundef %24, ptr noundef %25, i64 noundef %26, ptr noundef %27, i64 noundef %28, ptr noundef %14)
  %30 = call i32 @mbedtls_to_psa_error(i32 noundef %29)
  store i32 %30, ptr %15, align 4, !tbaa !12
  br label %71

31:                                               ; preds = %6
  %32 = load ptr, ptr %8, align 8, !tbaa !20
  %33 = getelementptr inbounds nuw %struct.mbedtls_psa_aead_operation_t, ptr %32, i32 0, i32 0
  %34 = load i32, ptr %33, align 8, !tbaa !19
  %35 = icmp eq i32 %34, 89129216
  br i1 %35, label %36, label %50

36:                                               ; preds = %31
  %37 = load i64, ptr %12, align 8, !tbaa !10
  %38 = load i64, ptr %10, align 8, !tbaa !10
  %39 = icmp ult i64 %37, %38
  br i1 %39, label %40, label %41

40:                                               ; preds = %36
  store i32 -138, ptr %7, align 4
  store i32 1, ptr %16, align 4
  br label %79

41:                                               ; preds = %36
  %42 = load ptr, ptr %8, align 8, !tbaa !20
  %43 = getelementptr inbounds nuw %struct.mbedtls_psa_aead_operation_t, ptr %42, i32 0, i32 4
  %44 = load ptr, ptr %9, align 8, !tbaa !8
  %45 = load i64, ptr %10, align 8, !tbaa !10
  %46 = load ptr, ptr %11, align 8, !tbaa !8
  %47 = load i64, ptr %12, align 8, !tbaa !10
  %48 = call i32 @mbedtls_ccm_update(ptr noundef %43, ptr noundef %44, i64 noundef %45, ptr noundef %46, i64 noundef %47, ptr noundef %14)
  %49 = call i32 @mbedtls_to_psa_error(i32 noundef %48)
  store i32 %49, ptr %15, align 4, !tbaa !12
  br label %70

50:                                               ; preds = %31
  %51 = load ptr, ptr %8, align 8, !tbaa !20
  %52 = getelementptr inbounds nuw %struct.mbedtls_psa_aead_operation_t, ptr %51, i32 0, i32 0
  %53 = load i32, ptr %52, align 8, !tbaa !19
  %54 = icmp eq i32 %53, 84935936
  br i1 %54, label %55, label %68

55:                                               ; preds = %50
  %56 = load i64, ptr %12, align 8, !tbaa !10
  %57 = load i64, ptr %10, align 8, !tbaa !10
  %58 = icmp ult i64 %56, %57
  br i1 %58, label %59, label %60

59:                                               ; preds = %55
  store i32 -138, ptr %7, align 4
  store i32 1, ptr %16, align 4
  br label %79

60:                                               ; preds = %55
  %61 = load ptr, ptr %8, align 8, !tbaa !20
  %62 = getelementptr inbounds nuw %struct.mbedtls_psa_aead_operation_t, ptr %61, i32 0, i32 4
  %63 = load i64, ptr %10, align 8, !tbaa !10
  %64 = load ptr, ptr %9, align 8, !tbaa !8
  %65 = load ptr, ptr %11, align 8, !tbaa !8
  %66 = call i32 @mbedtls_chachapoly_update(ptr noundef %62, i64 noundef %63, ptr noundef %64, ptr noundef %65)
  %67 = call i32 @mbedtls_to_psa_error(i32 noundef %66)
  store i32 %67, ptr %15, align 4, !tbaa !12
  br label %69

68:                                               ; preds = %50
  store i32 -134, ptr %7, align 4
  store i32 1, ptr %16, align 4
  br label %79

69:                                               ; preds = %60
  br label %70

70:                                               ; preds = %69, %41
  br label %71

71:                                               ; preds = %70, %22
  %72 = load i32, ptr %15, align 4, !tbaa !12
  %73 = icmp eq i32 %72, 0
  br i1 %73, label %74, label %77

74:                                               ; preds = %71
  %75 = load i64, ptr %14, align 8, !tbaa !10
  %76 = load ptr, ptr %13, align 8, !tbaa !14
  store i64 %75, ptr %76, align 8, !tbaa !10
  br label %77

77:                                               ; preds = %74, %71
  %78 = load i32, ptr %15, align 4, !tbaa !12
  store i32 %78, ptr %7, align 4
  store i32 1, ptr %16, align 4
  br label %79

79:                                               ; preds = %77, %68, %59, %40
  call void @llvm.lifetime.end.p0(i64 4, ptr %15) #5
  call void @llvm.lifetime.end.p0(i64 8, ptr %14) #5
  %80 = load i32, ptr %7, align 4
  ret i32 %80
}