; Function Attrs: nounwind uwtable
define hidden i32 @mbedtls_psa_aead_update(ptr noundef %0, ptr noundef %1, i64 noundef %2, ptr noundef %3, i64 noundef %4, ptr noundef writeonly captures(none) %5) local_unnamed_addr #0 {
  %7 = alloca i64, align 8
  call void @llvm.lifetime.start.p0(i64 8, ptr nonnull %7) #4
  store i64 %2, ptr %7, align 8, !tbaa !10
  %8 = load i32, ptr %0, align 8, !tbaa !9
  switch i32 %8, label %29 [
    i32 89129472, label %9
    i32 89129216, label %13
    i32 84935936, label %19
  ]

9:                                                ; preds = %6
  %10 = getelementptr inbounds nuw i8, ptr %0, i64 8
  %11 = call i32 @mbedtls_gcm_update(ptr noundef nonnull %10, ptr noundef %1, i64 noundef %2, ptr noundef %3, i64 noundef %4, ptr noundef nonnull %7) #4
  %12 = call i32 @mbedtls_to_psa_error(i32 noundef %11) #4
  br label %25

13:                                               ; preds = %6
  %14 = icmp ult i64 %4, %2
  br i1 %14, label %29, label %15

15:                                               ; preds = %13
  %16 = getelementptr inbounds nuw i8, ptr %0, i64 8
  %17 = call i32 @mbedtls_ccm_update(ptr noundef nonnull %16, ptr noundef %1, i64 noundef %2, ptr noundef %3, i64 noundef %4, ptr noundef nonnull %7) #4
  %18 = call i32 @mbedtls_to_psa_error(i32 noundef %17) #4
  br label %25

19:                                               ; preds = %6
  %20 = icmp ult i64 %4, %2
  br i1 %20, label %29, label %21

21:                                               ; preds = %19
  %22 = getelementptr inbounds nuw i8, ptr %0, i64 8
  %23 = tail call i32 @mbedtls_chachapoly_update(ptr noundef nonnull %22, i64 noundef %2, ptr noundef %1, ptr noundef %3) #4
  %24 = tail call i32 @mbedtls_to_psa_error(i32 noundef %23) #4
  br label %25

25:                                               ; preds = %15, %21, %9
  %.0 = phi i32 [ %12, %9 ], [ %18, %15 ], [ %24, %21 ]
  %26 = icmp eq i32 %.0, 0
  br i1 %26, label %27, label %29

27:                                               ; preds = %25
  %28 = load i64, ptr %7, align 8, !tbaa !10
  store i64 %28, ptr %5, align 8, !tbaa !10
  br label %29

29:                                               ; preds = %25, %27, %6, %19, %13
  %.025 = phi i32 [ -138, %13 ], [ -138, %19 ], [ -134, %6 ], [ 0, %27 ], [ %.0, %25 ]
  call void @llvm.lifetime.end.p0(i64 8, ptr nonnull %7) #4
  ret i32 %.025
}